target datalayout = "e-m:e-p270:32:32-p271:32:32-p272:64:64-i64:64-i128:128-f80:128-n8:16:32:64-S128"
target triple = "x86_64-pc-linux-gnu"

%struct._tocEntry = type { ptr, ptr, %struct.CatalogId, i32, i32, i8, ptr, ptr, ptr, ptr, i8, ptr, ptr, ptr, ptr, ptr, ptr, i32, ptr, ptr, ptr, i64, i32, i8, ptr, ptr, i32, ptr, i32, ptr, i32 }
%struct.CatalogId = type { i32, i32 }

@.str.26 = private unnamed_addr constant [31 x i8] c"could not find entry for ID %d\00", align 1
@.str.27 = private unnamed_addr constant [14 x i8] c"LARGE OBJECT \00", align 1

; Function Attrs: nounwind uwtable
define dso_local void @IssueACLPerBlob(ptr noundef %0, ptr noundef %1) #0 {
  %3 = alloca ptr, align 8
  %4 = alloca ptr, align 8
  %5 = alloca ptr, align 8
  %6 = alloca ptr, align 8
  %7 = alloca ptr, align 8
  %8 = alloca ptr, align 8
  %9 = alloca ptr, align 8
  %10 = alloca i8, align 1
  store ptr %0, ptr %3, align 8
  store ptr %1, ptr %4, align 8
  call void @llvm.lifetime.start.p0(i64 8, ptr %5) #9
  %11 = load ptr, ptr %3, align 8
  %12 = load ptr, ptr %4, align 8
  %13 = getelementptr inbounds nuw %struct._tocEntry, ptr %12, i32 0, i32 16
  %14 = load ptr, ptr %13, align 8
  %15 = getelementptr inbounds i32, ptr %14, i64 0
  %16 = load i32, ptr %15, align 4
  %17 = call ptr @getTocEntryByDumpId(ptr noundef %11, i32 noundef %16)
  store ptr %17, ptr %5, align 8
  call void @llvm.lifetime.start.p0(i64 8, ptr %6) #9
  call void @llvm.lifetime.start.p0(i64 8, ptr %7) #9
  call void @llvm.lifetime.start.p0(i64 8, ptr %8) #9
  call void @llvm.lifetime.start.p0(i64 8, ptr %9) #9
  call void @llvm.lifetime.start.p0(i64 1, ptr %10) #9
  %18 = load ptr, ptr %5, align 8
  %19 = icmp ne ptr %18, null
  br i1 %19, label %29, label %20

20:                                               ; preds = %2
  br label %21

21:                                               ; preds = %20
  %22 = load ptr, ptr %4, align 8
  %23 = getelementptr inbounds nuw %struct._tocEntry, ptr %22, i32 0, i32 16
  %24 = load ptr, ptr %23, align 8
  %25 = getelementptr inbounds i32, ptr %24, i64 0
  %26 = load i32, ptr %25, align 4
  call void (i32, i32, ptr, ...) @pg_log_generic(i32 noundef 4, i32 noundef 0, ptr noundef @.str.26, i32 noundef %26)
  call void @exit_nicely(i32 noundef 1) #10
  unreachable

27:                                               ; No predecessors!
  br label %28

28:                                               ; preds = %27
  br label %29

29:                                               ; preds = %28, %2
  %30 = load ptr, ptr %4, align 8
  %31 = getelementptr inbounds nuw %struct._tocEntry, ptr %30, i32 0, i32 13
  %32 = load ptr, ptr %31, align 8
  %33 = call ptr @pg_strdup(ptr noundef %32)
  store ptr %33, ptr %6, align 8
  store i8 0, ptr %10, align 1
  %34 = load ptr, ptr %6, align 8
  store ptr %34, ptr %9, align 8
  store ptr %34, ptr %7, align 8
  store ptr null, ptr %8, align 8
  br label %35

35:                                               ; preds = %114, %52, %29
  %36 = load ptr, ptr %9, align 8
  %37 = load i8, ptr %36, align 1
  %38 = icmp ne i8 %37, 0
  br i1 %38, label %39, label %115

39:                                               ; preds = %35
  %40 = load ptr, ptr %9, align 8
  %41 = load i8, ptr %40, align 1
  %42 = sext i8 %41 to i32
  %43 = icmp eq i32 %42, 34
  br i1 %43, label %44, label %49

44:                                               ; preds = %39
  %45 = load i8, ptr %10, align 1, !range !4, !noundef !5
  %46 = trunc i8 %45 to i1
  %47 = xor i1 %46, true
  %48 = zext i1 %47 to i8
  store i8 %48, ptr %10, align 1
  br label %49

49:                                               ; preds = %44, %39
  %50 = load i8, ptr %10, align 1, !range !4, !noundef !5
  %51 = trunc i8 %50 to i1
  br i1 %51, label %52, label %55

52:                                               ; preds = %49
  %53 = load ptr, ptr %9, align 8
  %54 = getelementptr inbounds nuw i8, ptr %53, i32 1
  store ptr %54, ptr %9, align 8
  br label %35, !llvm.loop !10

55:                                               ; preds = %49
  %56 = load ptr, ptr %9, align 8
  %57 = call i32 @strncmp(ptr noundef %56, ptr noundef @.str.27, i64 noundef 13) #12
  %58 = icmp eq i32 %57, 0
  br i1 %58, label %59, label %81

59:                                               ; preds = %55
  %60 = load ptr, ptr %9, align 8
  %61 = getelementptr inbounds i8, ptr %60, i64 13
  store ptr %61, ptr %9, align 8
  %62 = load ptr, ptr %9, align 8
  %63 = getelementptr inbounds nuw i8, ptr %62, i32 1
  store ptr %63, ptr %9, align 8
  store i8 0, ptr %62, align 1
  br label %64

64:                                               ; preds = %76, %59
  %65 = call ptr @__ctype_b_loc() #13
  %66 = load ptr, ptr %65, align 8
  %67 = load ptr, ptr %9, align 8
  %68 = load i8, ptr %67, align 1
  %69 = zext i8 %68 to i32
  %70 = sext i32 %69 to i64
  %71 = getelementptr inbounds i16, ptr %66, i64 %70
  %72 = load i16, ptr %71, align 2
  %73 = zext i16 %72 to i32
  %74 = and i32 %73, 2048
  %75 = icmp ne i32 %74, 0
  br i1 %75, label %76, label %79

76:                                               ; preds = %64
  %77 = load ptr, ptr %9, align 8
  %78 = getelementptr inbounds nuw i8, ptr %77, i32 1
  store ptr %78, ptr %9, align 8
  br label %64, !llvm.loop !11

79:                                               ; preds = %64
  %80 = load ptr, ptr %9, align 8
  store ptr %80, ptr %8, align 8
  br label %114

81:                                               ; preds = %55
  %82 = load ptr, ptr %9, align 8
  %83 = load i8, ptr %82, align 1
  %84 = sext i8 %83 to i32
  %85 = icmp eq i32 %84, 59
  br i1 %85, label %86, label %110

86:                                               ; preds = %81
  %87 = load ptr, ptr %9, align 8
  %88 = getelementptr inbounds nuw i8, ptr %87, i32 1
  store ptr %88, ptr %9, align 8
  store i8 0, ptr %87, align 1
  %89 = load ptr, ptr %3, align 8
  %90 = load ptr, ptr %5, align 8
  %91 = load ptr, ptr %7, align 8
  %92 = load ptr, ptr %8, align 8
  call void @IssueCommandPerBlob(ptr noundef %89, ptr noundef %90, ptr noundef %91, ptr noundef %92)
  br label %93

93:                                               ; preds = %105, %86
  %94 = call ptr @__ctype_b_loc() #13
  %95 = load ptr, ptr %94, align 8
  %96 = load ptr, ptr %9, align 8
  %97 = load i8, ptr %96, align 1
  %98 = zext i8 %97 to i32
  %99 = sext i32 %98 to i64
  %100 = getelementptr inbounds i16, ptr %95, i64 %99
  %101 = load i16, ptr %100, align 2
  %102 = zext i16 %101 to i32
  %103 = and i32 %102, 8192
  %104 = icmp ne i32 %103, 0
  br i1 %104, label %105, label %108

105:                                              ; preds = %93
  %106 = load ptr, ptr %9, align 8
  %107 = getelementptr inbounds nuw i8, ptr %106, i32 1
  store ptr %107, ptr %9, align 8
  br label %93, !llvm.loop !12

108:                                              ; preds = %93
  %109 = load ptr, ptr %9, align 8
  store ptr %109, ptr %7, align 8
  store ptr null, ptr %8, align 8
  br label %113

110:                                              ; preds = %81
  %111 = load ptr, ptr %9, align 8
  %112 = getelementptr inbounds nuw i8, ptr %111, i32 1
  store ptr %112, ptr %9, align 8
  br label %113

113:                                              ; preds = %110, %108
  br label %114

114:                                              ; preds = %113, %79
  br label %35, !llvm.loop !10

115:                                              ; preds = %35
  %116 = load ptr, ptr %6, align 8
  call void @pg_free(ptr noundef %116)
  call void @llvm.lifetime.end.p0(i64 1, ptr %10) #9
  call void @llvm.lifetime.end.p0(i64 8, ptr %9) #9
  call void @llvm.lifetime.end.p0(i64 8, ptr %8) #9
  call void @llvm.lifetime.end.p0(i64 8, ptr %7) #9
  call void @llvm.lifetime.end.p0(i64 8, ptr %6) #9
  call void @llvm.lifetime.end.p0(i64 8, ptr %5) #9
  ret void
}