; Function Attrs: nounwind uwtable
define dso_local void @IssueACLPerBlob(ptr noundef %0, ptr noundef readonly captures(none) %1) local_unnamed_addr #0 {
  %3 = getelementptr inbounds nuw i8, ptr %1, i64 120
  %4 = load ptr, ptr %3, align 8
  %5 = load i32, ptr %4, align 4
  %6 = tail call ptr @getTocEntryByDumpId(ptr noundef %0, i32 noundef %5) #11
  %.not = icmp eq ptr %6, null
  br i1 %.not, label %7, label %10

7:                                                ; preds = %2
  %8 = load ptr, ptr %3, align 8
  %9 = load i32, ptr %8, align 4
  tail call void (i32, i32, ptr, ...) @pg_log_generic(i32 noundef 4, i32 noundef 0, ptr noundef nonnull @.str.26, i32 noundef %9) #11
  tail call void @exit_nicely(i32 noundef 1) #12
  unreachable

10:                                               ; preds = %2
  %11 = getelementptr inbounds nuw i8, ptr %1, i64 96
  %12 = load ptr, ptr %11, align 8
  %13 = tail call ptr @pg_strdup(ptr noundef %12) #11
  br label %.outer

.outer:                                           ; preds = %.loopexit, %10
  %.031.ph = phi ptr [ %.132, %.loopexit ], [ %13, %10 ]
  %.029.ph = phi ptr [ %.130, %.loopexit ], [ null, %10 ]
  %.027.ph = phi ptr [ %.2, %.loopexit ], [ %13, %10 ]
  br label %14

14:                                               ; preds = %.outer, %18
  %.027 = phi ptr [ %19, %18 ], [ %.027.ph, %.outer ]
  %.0 = phi i1 [ true, %18 ], [ false, %.outer ]
  %15 = load i8, ptr %.027, align 1
  switch i8 %15, label %17 [
    i8 0, label %49
    i8 34, label %16
  ]

16:                                               ; preds = %14
  br i1 %.0, label %.thread, label %18

17:                                               ; preds = %14
  br i1 %.0, label %18, label %20

18:                                               ; preds = %16, %17
  %19 = getelementptr inbounds nuw i8, ptr %.027, i64 1
  br label %14, !llvm.loop !10

20:                                               ; preds = %17
  %21 = tail call i32 @strncmp(ptr noundef nonnull dereferenceable(1) %.027, ptr noundef nonnull dereferenceable(14) @.str.27, i64 noundef 13) #14
  %22 = icmp eq i32 %21, 0
  br i1 %22, label %25, label %37

.thread:                                          ; preds = %16
  %23 = tail call i32 @strncmp(ptr noundef nonnull dereferenceable(1) %.027, ptr noundef nonnull dereferenceable(14) @.str.27, i64 noundef 13) #14
  %24 = icmp eq i32 %23, 0
  br i1 %24, label %25, label %.thread44

25:                                               ; preds = %.thread, %20
  %26 = getelementptr inbounds nuw i8, ptr %.027, i64 13
  %27 = getelementptr inbounds nuw i8, ptr %.027, i64 14
  store i8 0, ptr %26, align 1
  %28 = tail call ptr @__ctype_b_loc() #15
  %29 = load ptr, ptr %28, align 8
  br label %30

30:                                               ; preds = %30, %25
  %.128 = phi ptr [ %27, %25 ], [ %36, %30 ]
  %31 = load i8, ptr %.128, align 1
  %32 = zext i8 %31 to i64
  %33 = getelementptr inbounds nuw i16, ptr %29, i64 %32
  %34 = load i16, ptr %33, align 2
  %35 = and i16 %34, 2048
  %.not37 = icmp eq i16 %35, 0
  %36 = getelementptr inbounds nuw i8, ptr %.128, i64 1
  br i1 %.not37, label %.loopexit, label %30, !llvm.loop !11

37:                                               ; preds = %20
  %38 = icmp eq i8 %15, 59
  br i1 %38, label %39, label %.thread44

39:                                               ; preds = %37
  store i8 0, ptr %.027, align 1
  tail call void @IssueCommandPerBlob(ptr noundef %0, ptr noundef nonnull %6, ptr noundef %.031.ph, ptr noundef %.029.ph)
  %40 = tail call ptr @__ctype_b_loc() #15
  %41 = load ptr, ptr %40, align 8
  br label %42

42:                                               ; preds = %42, %39
  %.027.pn = phi ptr [ %.027, %39 ], [ %.3, %42 ]
  %.3 = getelementptr inbounds nuw i8, ptr %.027.pn, i64 1
  %43 = load i8, ptr %.3, align 1
  %44 = zext i8 %43 to i64
  %45 = getelementptr inbounds nuw i16, ptr %41, i64 %44
  %46 = load i16, ptr %45, align 2
  %47 = and i16 %46, 8192
  %.not36 = icmp eq i16 %47, 0
  br i1 %.not36, label %.loopexit, label %42, !llvm.loop !12

.thread44:                                        ; preds = %.thread, %37
  %48 = getelementptr inbounds nuw i8, ptr %.027, i64 1
  br label %.loopexit

.loopexit:                                        ; preds = %42, %30, %.thread44
  %.132 = phi ptr [ %.031.ph, %.thread44 ], [ %.031.ph, %30 ], [ %.3, %42 ]
  %.130 = phi ptr [ %.029.ph, %.thread44 ], [ %.128, %30 ], [ null, %42 ]
  %.2 = phi ptr [ %48, %.thread44 ], [ %.128, %30 ], [ %.3, %42 ]
  br label %.outer, !llvm.loop !10

49:                                               ; preds = %14
  tail call void @pg_free(ptr noundef %13) #11
  ret void
}